target datalayout = "e-m:e-p270:32:32-p271:32:32-p272:64:64-i64:64-i128:128-f80:128-n8:16:32:64-S128"
target triple = "x86_64-unknown-linux-gnu"

%"class.OpenImageIO_v2_6_0::ustring" = type { ptr }
%"class.OpenImageIO_v2_6_0::TextureOpt" = type { i32, i32, %"class.OpenImageIO_v2_6_0::ustring", i32, i32, i32, i32, i32, i8, float, float, float, float, float, ptr, float, %union.anon.86, i32, i32, float, float, i32, i32 }
%union.anon.86 = type { float }
%"class.OpenImageIO_v2_6_0::VaryingRef" = type <{ ptr, i32, [4 x i8] }>

; Function Attrs: mustprogress nounwind uwtable
define linkonce_odr void @_ZN18OpenImageIO_v2_6_07ustringD2Ev(ptr noundef nonnull align 8 dereferenceable(8) %this) unnamed_addr #1 comdat align 2 {
entry:
  %this.addr = alloca ptr, align 8
  store ptr %this, ptr %this.addr, align 8
  ret void
}

; Function Attrs: mustprogress nounwind uwtable
define linkonce_odr void @_ZN18OpenImageIO_v2_6_010TextureOptD2Ev(ptr noundef nonnull align 8 dereferenceable(104) %this) unnamed_addr #1 comdat align 2 {
entry:
  %this.addr = alloca ptr, align 8
  store ptr %this, ptr %this.addr, align 8
  %this1 = load ptr, ptr %this.addr, align 8
  %subimagename = getelementptr inbounds %"class.OpenImageIO_v2_6_0::TextureOpt", ptr %this1, i32 0, i32 2
  call void @_ZN18OpenImageIO_v2_6_07ustringD2Ev(ptr noundef nonnull align 8 dereferenceable(8) %subimagename) #5
  ret void
}

; Function Attrs: mustprogress nounwind uwtable
define linkonce_odr hidden noundef nonnull align 4 dereferenceable(4) ptr @_ZNK18OpenImageIO_v2_6_010VaryingRefIfEixEi(ptr noundef nonnull align 8 dereferenceable(12) %this, i32 noundef %i) #1 comdat align 2 {
entry:
  %this.addr = alloca ptr, align 8
  %i.addr = alloca i32, align 4
  store ptr %this, ptr %this.addr, align 8
  store i32 %i, ptr %i.addr, align 4
  %this1 = load ptr, ptr %this.addr, align 8
  %m_ptr = getelementptr inbounds %"class.OpenImageIO_v2_6_0::VaryingRef", ptr %this1, i32 0, i32 0
  %0 = load ptr, ptr %m_ptr, align 8
  %1 = load i32, ptr %i.addr, align 4
  %m_step = getelementptr inbounds %"class.OpenImageIO_v2_6_0::VaryingRef", ptr %this1, i32 0, i32 1
  %2 = load i32, ptr %m_step, align 8
  %mul = mul nsw i32 %1, %2
  %idx.ext = sext i32 %mul to i64
  %add.ptr = getelementptr inbounds i8, ptr %0, i64 %idx.ext
  ret ptr %add.ptr
}

; Function Attrs: mustprogress uwtable
define hidden noundef zeroext i1 @_ZN18OpenImageIO_v2_6_03pvt17TextureSystemImpl7textureEPNS_13TextureSystem13TextureHandleEPNS2_9PerthreadERNS_14TextureOptionsEPhiiNS_10VaryingRefIfEESB_SB_SB_SB_SB_iPfSC_SC_(ptr noundef nonnull align 8 dereferenceable(184) %this, ptr noundef %texture_handle, ptr noundef %thread_info, ptr noundef nonnull align 8 dereferenceable(224) %options, ptr noundef %runflags, i32 noundef %beginactive, i32 noundef %endactive, ptr noundef byval(%"class.OpenImageIO_v2_6_0::VaryingRef") align 8 %s, ptr noundef byval(%"class.OpenImageIO_v2_6_0::VaryingRef") align 8 %t, ptr noundef byval(%"class.OpenImageIO_v2_6_0::VaryingRef") align 8 %dsdx, ptr noundef byval(%"class.OpenImageIO_v2_6_0::VaryingRef") align 8 %dtdx, ptr noundef byval(%"class.OpenImageIO_v2_6_0::VaryingRef") align 8 %dsdy, ptr noundef byval(%"class.OpenImageIO_v2_6_0::VaryingRef") align 8 %dtdy, i32 noundef %nchannels, ptr noundef %result, ptr noundef %dresultds, ptr noundef %dresultdt) unnamed_addr #7 align 2 personality ptr @__gxx_personality_v0 {
entry:
  %retval = alloca i1, align 1
  %this.addr = alloca ptr, align 8
  %texture_handle.addr = alloca ptr, align 8
  %thread_info.addr = alloca ptr, align 8
  %options.addr = alloca ptr, align 8
  %runflags.addr = alloca ptr, align 8
  %beginactive.addr = alloca i32, align 4
  %endactive.addr = alloca i32, align 4
  %nchannels.addr = alloca i32, align 4
  %result.addr = alloca ptr, align 8
  %dresultds.addr = alloca ptr, align 8
  %dresultdt.addr = alloca ptr, align 8
  %ok = alloca i8, align 1
  %i = alloca i32, align 4
  %opt = alloca %"class.OpenImageIO_v2_6_0::TextureOpt", align 8
  %exn.slot = alloca ptr, align 8
  %ehselector.slot = alloca i32, align 4
  store ptr %this, ptr %this.addr, align 8
  store ptr %texture_handle, ptr %texture_handle.addr, align 8
  store ptr %thread_info, ptr %thread_info.addr, align 8
  store ptr %options, ptr %options.addr, align 8
  store ptr %runflags, ptr %runflags.addr, align 8
  store i32 %beginactive, ptr %beginactive.addr, align 4
  store i32 %endactive, ptr %endactive.addr, align 4
  store i32 %nchannels, ptr %nchannels.addr, align 4
  store ptr %result, ptr %result.addr, align 8
  store ptr %dresultds, ptr %dresultds.addr, align 8
  store ptr %dresultdt, ptr %dresultdt.addr, align 8
  %this1 = load ptr, ptr %this.addr, align 8
  %0 = load ptr, ptr %texture_handle.addr, align 8
  %tobool = icmp ne ptr %0, null
  br i1 %tobool, label %if.end, label %if.then

if.then:                                          ; preds = %entry
  store i1 false, ptr %retval, align 1
  br label %return

if.end:                                           ; preds = %entry
  store i8 1, ptr %ok, align 1
  %1 = load i32, ptr %beginactive.addr, align 4
  %2 = load i32, ptr %nchannels.addr, align 4
  %mul = mul nsw i32 %1, %2
  %3 = load ptr, ptr %result.addr, align 8
  %idx.ext = sext i32 %mul to i64
  %add.ptr = getelementptr inbounds float, ptr %3, i64 %idx.ext
  store ptr %add.ptr, ptr %result.addr, align 8
  %4 = load ptr, ptr %dresultds.addr, align 8
  %tobool2 = icmp ne ptr %4, null
  br i1 %tobool2, label %if.then3, label %if.end10

if.then3:                                         ; preds = %if.end
  %5 = load i32, ptr %beginactive.addr, align 4
  %6 = load i32, ptr %nchannels.addr, align 4
  %mul4 = mul nsw i32 %5, %6
  %7 = load ptr, ptr %dresultds.addr, align 8
  %idx.ext5 = sext i32 %mul4 to i64
  %add.ptr6 = getelementptr inbounds float, ptr %7, i64 %idx.ext5
  store ptr %add.ptr6, ptr %dresultds.addr, align 8
  %8 = load i32, ptr %beginactive.addr, align 4
  %9 = load i32, ptr %nchannels.addr, align 4
  %mul7 = mul nsw i32 %8, %9
  %10 = load ptr, ptr %dresultdt.addr, align 8
  %idx.ext8 = sext i32 %mul7 to i64
  %add.ptr9 = getelementptr inbounds float, ptr %10, i64 %idx.ext8
  store ptr %add.ptr9, ptr %dresultdt.addr, align 8
  br label %if.end10

if.end10:                                         ; preds = %if.then3, %if.end
  %11 = load i32, ptr %beginactive.addr, align 4
  store i32 %11, ptr %i, align 4
  br label %for.cond

for.cond:                                         ; preds = %for.inc, %if.end10
  %12 = load i32, ptr %i, align 4
  %13 = load i32, ptr %endactive.addr, align 4
  %cmp = icmp slt i32 %12, %13
  br i1 %cmp, label %for.body, label %for.end

for.body:                                         ; preds = %for.cond
  %14 = load ptr, ptr %runflags.addr, align 8
  %15 = load i32, ptr %i, align 4
  %idxprom = sext i32 %15 to i64
  %arrayidx = getelementptr inbounds i8, ptr %14, i64 %idxprom
  %16 = load i8, ptr %arrayidx, align 1
  %tobool11 = icmp ne i8 %16, 0
  br i1 %tobool11, label %if.then12, label %if.end28

if.then12:                                        ; preds = %for.body
  %17 = load ptr, ptr %options.addr, align 8
  %18 = load i32, ptr %i, align 4
  call void @_ZN18OpenImageIO_v2_6_010TextureOptC1ERKNS_14TextureOptionsEi(ptr noundef nonnull align 8 dereferenceable(104) %opt, ptr noundef nonnull align 8 dereferenceable(224) %17, i32 noundef %18)
  %19 = load ptr, ptr %texture_handle.addr, align 8
  %20 = load ptr, ptr %thread_info.addr, align 8
  %21 = load i32, ptr %i, align 4
  %call = invoke noundef nonnull align 4 dereferenceable(4) ptr @_ZNK18OpenImageIO_v2_6_010VaryingRefIfEixEi(ptr noundef nonnull align 8 dereferenceable(12) %s, i32 noundef %21)
          to label %invoke.cont unwind label %lpad

invoke.cont:                                      ; preds = %if.then12
  %22 = load float, ptr %call, align 4
  %23 = load i32, ptr %i, align 4
  %call14 = invoke noundef nonnull align 4 dereferenceable(4) ptr @_ZNK18OpenImageIO_v2_6_010VaryingRefIfEixEi(ptr noundef nonnull align 8 dereferenceable(12) %t, i32 noundef %23)
          to label %invoke.cont13 unwind label %lpad

invoke.cont13:                                    ; preds = %invoke.cont
  %24 = load float, ptr %call14, align 4
  %25 = load i32, ptr %i, align 4
  %call16 = invoke noundef nonnull align 4 dereferenceable(4) ptr @_ZNK18OpenImageIO_v2_6_010VaryingRefIfEixEi(ptr noundef nonnull align 8 dereferenceable(12) %dsdx, i32 noundef %25)
          to label %invoke.cont15 unwind label %lpad

invoke.cont15:                                    ; preds = %invoke.cont13
  %26 = load float, ptr %call16, align 4
  %27 = load i32, ptr %i, align 4
  %call18 = invoke noundef nonnull align 4 dereferenceable(4) ptr @_ZNK18OpenImageIO_v2_6_010VaryingRefIfEixEi(ptr noundef nonnull align 8 dereferenceable(12) %dtdx, i32 noundef %27)
          to label %invoke.cont17 unwind label %lpad

invoke.cont17:                                    ; preds = %invoke.cont15
  %28 = load float, ptr %call18, align 4
  %29 = load i32, ptr %i, align 4
  %call20 = invoke noundef nonnull align 4 dereferenceable(4) ptr @_ZNK18OpenImageIO_v2_6_010VaryingRefIfEixEi(ptr noundef nonnull align 8 dereferenceable(12) %dsdy, i32 noundef %29)
          to label %invoke.cont19 unwind label %lpad

invoke.cont19:                                    ; preds = %invoke.cont17
  %30 = load float, ptr %call20, align 4
  %31 = load i32, ptr %i, align 4
  %call22 = invoke noundef nonnull align 4 dereferenceable(4) ptr @_ZNK18OpenImageIO_v2_6_010VaryingRefIfEixEi(ptr noundef nonnull align 8 dereferenceable(12) %dtdy, i32 noundef %31)
          to label %invoke.cont21 unwind label %lpad

invoke.cont21:                                    ; preds = %invoke.cont19
  %32 = load float, ptr %call22, align 4
  %33 = load i32, ptr %nchannels.addr, align 4
  %34 = load ptr, ptr %result.addr, align 8
  %35 = load ptr, ptr %dresultds.addr, align 8
  %36 = load ptr, ptr %dresultdt.addr, align 8
  %call24 = invoke noundef zeroext i1 @_ZN18OpenImageIO_v2_6_03pvt17TextureSystemImpl7textureEPNS_13TextureSystem13TextureHandleEPNS2_9PerthreadERNS_10TextureOptEffffffiPfS9_S9_(ptr noundef nonnull align 8 dereferenceable(184) %this1, ptr noundef %19, ptr noundef %20, ptr noundef nonnull align 8 dereferenceable(104) %opt, float noundef %22, float noundef %24, float noundef %26, float noundef %28, float noundef %30, float noundef %32, i32 noundef %33, ptr noundef %34, ptr noundef %35, ptr noundef %36)
          to label %invoke.cont23 unwind label %lpad

invoke.cont23:                                    ; preds = %invoke.cont21
  %conv = zext i1 %call24 to i32
  %37 = load i8, ptr %ok, align 1
  %tobool25 = trunc i8 %37 to i1
  %conv26 = zext i1 %tobool25 to i32
  %and = and i32 %conv26, %conv
  %tobool27 = icmp ne i32 %and, 0
  %frombool = zext i1 %tobool27 to i8
  store i8 %frombool, ptr %ok, align 1
  call void @_ZN18OpenImageIO_v2_6_010TextureOptD2Ev(ptr noundef nonnull align 8 dereferenceable(104) %opt) #5
  br label %if.end28

lpad:                                             ; preds = %invoke.cont21, %invoke.cont19, %invoke.cont17, %invoke.cont15, %invoke.cont13, %invoke.cont, %if.then12
  %38 = landingpad { ptr, i32 }
          cleanup
  %39 = extractvalue { ptr, i32 } %38, 0
  store ptr %39, ptr %exn.slot, align 8
  %40 = extractvalue { ptr, i32 } %38, 1
  store i32 %40, ptr %ehselector.slot, align 4
  call void @_ZN18OpenImageIO_v2_6_010TextureOptD2Ev(ptr noundef nonnull align 8 dereferenceable(104) %opt) #5
  br label %eh.resume

if.end28:                                         ; preds = %invoke.cont23, %for.body
  %41 = load i32, ptr %nchannels.addr, align 4
  %42 = load ptr, ptr %result.addr, align 8
  %idx.ext29 = sext i32 %41 to i64
  %add.ptr30 = getelementptr inbounds float, ptr %42, i64 %idx.ext29
  store ptr %add.ptr30, ptr %result.addr, align 8
  %43 = load ptr, ptr %dresultds.addr, align 8
  %tobool31 = icmp ne ptr %43, null
  br i1 %tobool31, label %if.then32, label %if.end37

if.then32:                                        ; preds = %if.end28
  %44 = load i32, ptr %nchannels.addr, align 4
  %45 = load ptr, ptr %dresultds.addr, align 8
  %idx.ext33 = sext i32 %44 to i64
  %add.ptr34 = getelementptr inbounds float, ptr %45, i64 %idx.ext33
  store ptr %add.ptr34, ptr %dresultds.addr, align 8
  %46 = load i32, ptr %nchannels.addr, align 4
  %47 = load ptr, ptr %dresultdt.addr, align 8
  %idx.ext35 = sext i32 %46 to i64
  %add.ptr36 = getelementptr inbounds float, ptr %47, i64 %idx.ext35
  store ptr %add.ptr36, ptr %dresultdt.addr, align 8
  br label %if.end37

if.end37:                                         ; preds = %if.then32, %if.end28
  br label %for.inc

for.inc:                                          ; preds = %if.end37
  %48 = load i32, ptr %i, align 4
  %inc = add nsw i32 %48, 1
  store i32 %inc, ptr %i, align 4
  br label %for.cond, !llvm.loop !187

for.end:                                          ; preds = %for.cond
  %49 = load i8, ptr %ok, align 1
  %tobool38 = trunc i8 %49 to i1
  store i1 %tobool38, ptr %retval, align 1
  br label %return

return:                                           ; preds = %for.end, %if.then
  %50 = load i1, ptr %retval, align 1
  ret i1 %50

eh.resume:                                        ; preds = %lpad
  %exn = load ptr, ptr %exn.slot, align 8
  %sel = load i32, ptr %ehselector.slot, align 4
  %lpad.val = insertvalue { ptr, i32 } poison, ptr %exn, 0
  %lpad.val39 = insertvalue { ptr, i32 } %lpad.val, i32 %sel, 1
  resume { ptr, i32 } %lpad.val39
}