; Function Attrs: mustprogress uwtable
define hidden noundef zeroext i1 @_ZN18OpenImageIO_v2_6_03pvt17TextureSystemImpl7textureEPNS_13TextureSystem13TextureHandleEPNS2_9PerthreadERNS_14TextureOptionsEPhiiNS_10VaryingRefIfEESB_SB_SB_SB_SB_iPfSC_SC_(ptr noundef nonnull align 8 dereferenceable(184) %this, ptr noundef %texture_handle, ptr noundef %thread_info, ptr noundef nonnull align 8 dereferenceable(224) %options, ptr nocapture noundef readonly %runflags, i32 noundef %beginactive, i32 noundef %endactive, ptr nocapture noundef readonly byval(%"class.OpenImageIO_v2_6_0::VaryingRef") align 8 %s, ptr nocapture noundef readonly byval(%"class.OpenImageIO_v2_6_0::VaryingRef") align 8 %t, ptr nocapture noundef readonly byval(%"class.OpenImageIO_v2_6_0::VaryingRef") align 8 %dsdx, ptr nocapture noundef readonly byval(%"class.OpenImageIO_v2_6_0::VaryingRef") align 8 %dtdx, ptr nocapture noundef readonly byval(%"class.OpenImageIO_v2_6_0::VaryingRef") align 8 %dsdy, ptr nocapture noundef readonly byval(%"class.OpenImageIO_v2_6_0::VaryingRef") align 8 %dtdy, i32 noundef %nchannels, ptr noundef %result, ptr noundef %dresultds, ptr noundef %dresultdt) unnamed_addr #5 align 2 personality ptr @__gxx_personality_v0 {
entry:
  %opt = alloca %"class.OpenImageIO_v2_6_0::TextureOpt", align 8
  %tobool.not = icmp eq ptr %texture_handle, null
  br i1 %tobool.not, label %return, label %if.end

if.end:                                           ; preds = %entry
  %cmp50 = icmp slt i32 %beginactive, %endactive
  br i1 %cmp50, label %for.body.lr.ph, label %return

for.body.lr.ph:                                   ; preds = %if.end
  %tobool2.not = icmp eq ptr %dresultds, null
  %mul = mul nsw i32 %nchannels, %beginactive
  %idx.ext = sext i32 %mul to i64
  %dresultdt.addr.0.idx = select i1 %tobool2.not, i64 0, i64 %idx.ext
  %dresultdt.addr.0 = getelementptr inbounds float, ptr %dresultdt, i64 %dresultdt.addr.0.idx
  %add.ptr6 = getelementptr inbounds float, ptr %dresultds, i64 %idx.ext
  %dresultds.addr.0 = select i1 %tobool2.not, ptr null, ptr %add.ptr6
  %add.ptr = getelementptr inbounds float, ptr %result, i64 %idx.ext
  %m_step.i = getelementptr inbounds i8, ptr %s, i64 8
  %m_step.i30 = getelementptr inbounds i8, ptr %t, i64 8
  %m_step.i34 = getelementptr inbounds i8, ptr %dsdx, i64 8
  %m_step.i38 = getelementptr inbounds i8, ptr %dtdx, i64 8
  %m_step.i42 = getelementptr inbounds i8, ptr %dsdy, i64 8
  %m_step.i46 = getelementptr inbounds i8, ptr %dtdy, i64 8
  %idx.ext29 = sext i32 %nchannels to i64
  %0 = sext i32 %beginactive to i64
  br label %for.body

for.body:                                         ; preds = %for.body.lr.ph, %if.end28
  %indvars.iv = phi i64 [ %0, %for.body.lr.ph ], [ %indvars.iv.next, %if.end28 ]
  %result.addr.055 = phi ptr [ %add.ptr, %for.body.lr.ph ], [ %add.ptr30, %if.end28 ]
  %ok.053 = phi i8 [ 1, %for.body.lr.ph ], [ %ok.1, %if.end28 ]
  %dresultdt.addr.152 = phi ptr [ %dresultdt.addr.0, %for.body.lr.ph ], [ %dresultdt.addr.2, %if.end28 ]
  %dresultds.addr.151 = phi ptr [ %dresultds.addr.0, %for.body.lr.ph ], [ %dresultds.addr.2, %if.end28 ]
  %arrayidx = getelementptr inbounds i8, ptr %runflags, i64 %indvars.iv
  %1 = load i8, ptr %arrayidx, align 1
  %tobool11.not = icmp eq i8 %1, 0
  br i1 %tobool11.not, label %if.end28, label %if.then12

if.then12:                                        ; preds = %for.body
  %2 = trunc i64 %indvars.iv to i32
  call void @_ZN18OpenImageIO_v2_6_010TextureOptC1ERKNS_14TextureOptionsEi(ptr noundef nonnull align 8 dereferenceable(104) %opt, ptr noundef nonnull align 8 dereferenceable(224) %options, i32 noundef %2)
  %3 = load ptr, ptr %s, align 8
  %4 = load i32, ptr %m_step.i, align 8
  %5 = sext i32 %4 to i64
  %6 = mul nsw i64 %indvars.iv, %5
  %add.ptr.i = getelementptr inbounds i8, ptr %3, i64 %6
  %7 = load float, ptr %add.ptr.i, align 4
  %8 = load ptr, ptr %t, align 8
  %9 = load i32, ptr %m_step.i30, align 8
  %10 = sext i32 %9 to i64
  %11 = mul nsw i64 %indvars.iv, %10
  %add.ptr.i33 = getelementptr inbounds i8, ptr %8, i64 %11
  %12 = load float, ptr %add.ptr.i33, align 4
  %13 = load ptr, ptr %dsdx, align 8
  %14 = load i32, ptr %m_step.i34, align 8
  %15 = sext i32 %14 to i64
  %16 = mul nsw i64 %indvars.iv, %15
  %add.ptr.i37 = getelementptr inbounds i8, ptr %13, i64 %16
  %17 = load float, ptr %add.ptr.i37, align 4
  %18 = load ptr, ptr %dtdx, align 8
  %19 = load i32, ptr %m_step.i38, align 8
  %20 = sext i32 %19 to i64
  %21 = mul nsw i64 %indvars.iv, %20
  %add.ptr.i41 = getelementptr inbounds i8, ptr %18, i64 %21
  %22 = load float, ptr %add.ptr.i41, align 4
  %23 = load ptr, ptr %dsdy, align 8
  %24 = load i32, ptr %m_step.i42, align 8
  %25 = sext i32 %24 to i64
  %26 = mul nsw i64 %indvars.iv, %25
  %add.ptr.i45 = getelementptr inbounds i8, ptr %23, i64 %26
  %27 = load float, ptr %add.ptr.i45, align 4
  %28 = load ptr, ptr %dtdy, align 8
  %29 = load i32, ptr %m_step.i46, align 8
  %30 = sext i32 %29 to i64
  %31 = mul nsw i64 %indvars.iv, %30
  %add.ptr.i49 = getelementptr inbounds i8, ptr %28, i64 %31
  %32 = load float, ptr %add.ptr.i49, align 4
  %call24 = call noundef zeroext i1 @_ZN18OpenImageIO_v2_6_03pvt17TextureSystemImpl7textureEPNS_13TextureSystem13TextureHandleEPNS2_9PerthreadERNS_10TextureOptEffffffiPfS9_S9_(ptr noundef nonnull align 8 dereferenceable(184) %this, ptr noundef nonnull %texture_handle, ptr noundef %thread_info, ptr noundef nonnull align 8 dereferenceable(104) %opt, float noundef %7, float noundef %12, float noundef %17, float noundef %22, float noundef %27, float noundef %32, i32 noundef %nchannels, ptr noundef %result.addr.055, ptr noundef %dresultds.addr.151, ptr noundef %dresultdt.addr.152)
  %33 = and i8 %ok.053, 1
  %tobool2729 = icmp ne i8 %33, 0
  %tobool27 = select i1 %call24, i1 %tobool2729, i1 false
  %frombool = zext i1 %tobool27 to i8
  br label %if.end28

if.end28:                                         ; preds = %if.then12, %for.body
  %ok.1 = phi i8 [ %frombool, %if.then12 ], [ %ok.053, %for.body ]
  %add.ptr30 = getelementptr inbounds float, ptr %result.addr.055, i64 %idx.ext29
  %tobool31.not = icmp eq ptr %dresultds.addr.151, null
  %add.ptr34 = getelementptr inbounds float, ptr %dresultds.addr.151, i64 %idx.ext29
  %dresultds.addr.2 = select i1 %tobool31.not, ptr null, ptr %add.ptr34
  %dresultdt.addr.2.idx = select i1 %tobool31.not, i64 0, i64 %idx.ext29
  %dresultdt.addr.2 = getelementptr inbounds float, ptr %dresultdt.addr.152, i64 %dresultdt.addr.2.idx
  %indvars.iv.next = add nsw i64 %indvars.iv, 1
  %lftr.wideiv = trunc i64 %indvars.iv.next to i32
  %exitcond.not = icmp eq i32 %lftr.wideiv, %endactive
  br i1 %exitcond.not, label %for.end.loopexit, label %for.body, !llvm.loop !90

for.end.loopexit:                                 ; preds = %if.end28
  %34 = and i8 %ok.1, 1
  %35 = icmp ne i8 %34, 0
  br label %return

return:                                           ; preds = %if.end, %for.end.loopexit, %entry
  %retval.0 = phi i1 [ false, %entry ], [ true, %if.end ], [ %35, %for.end.loopexit ]
  ret i1 %retval.0
}